; Function Attrs: mustprogress uwtable
define hidden void @_ZN6google8protobuf8compiler3cpp9NamespaceB5cxx11EPKNS0_15FieldDescriptorERKNS2_7OptionsE(ptr noalias sret(%"class.std::__cxx11::basic_string") align 8 %agg.result, ptr nocapture noundef readonly %d, ptr nocapture noundef nonnull readnone align 8 dereferenceable(206) %options) local_unnamed_addr #4 {
entry:
  %file_.i = getelementptr inbounds i8, ptr %d, i64 16
  %0 = load ptr, ptr %file_.i, align 8
  %package_.i.i = getelementptr inbounds i8, ptr %0, i64 16
  %1 = load ptr, ptr %package_.i.i, align 8, !noalias !89
  %call1.i = tail call { i64, ptr } @_ZNKSt7__cxx1112basic_stringIcSt11char_traitsIcESaIcEEcvSt17basic_string_viewIcS2_EEv(ptr noundef nonnull align 8 dereferenceable(32) %1) #26, !noalias !89
  %2 = extractvalue { i64, ptr } %call1.i, 0
  %3 = extractvalue { i64, ptr } %call1.i, 1
  tail call void @_ZN6google8protobuf8compiler3cpp9NamespaceB5cxx11ESt17basic_string_viewIcSt11char_traitsIcEE(ptr sret(%"class.std::__cxx11::basic_string") align 8 %agg.result, i64 %2, ptr %3)
  ret void
}